; Function Attrs: mustprogress uwtable
define noundef ptr @_ZN6icu_758ZoneMeta14findMetaZoneIDERKNS_13UnicodeStringE(ptr noundef nonnull align 8 dereferenceable(64) %mzid) local_unnamed_addr #0 align 2 personality ptr @__gxx_personality_v0 {
entry:
  %0 = load atomic i32, ptr @_ZL20gMetaZoneIDsInitOnce acquire, align 4
  %cmp.i = icmp eq i32 %0, 2
  br i1 %cmp.i, label %_ZN6icu_7513umtx_initOnceERNS_9UInitOnceEPFvvE.exit, label %if.end.i

if.end.i:                                         ; preds = %entry
  %call1.i = tail call noundef signext i8 @_ZN6icu_7520umtx_initImplPreInitERNS_9UInitOnceE(ptr noundef nonnull align 4 dereferenceable(8) @_ZL20gMetaZoneIDsInitOnce)
  %tobool.not.i = icmp eq i8 %call1.i, 0
  br i1 %tobool.not.i, label %_ZN6icu_7513umtx_initOnceERNS_9UInitOnceEPFvvE.exit, label %if.then2.i

if.then2.i:                                       ; preds = %if.end.i
  tail call fastcc void @_ZN6icu_75L24initAvailableMetaZoneIDsEv()
  tail call void @_ZN6icu_7521umtx_initImplPostInitERNS_9UInitOnceE(ptr noundef nonnull align 4 dereferenceable(8) @_ZL20gMetaZoneIDsInitOnce)
  br label %_ZN6icu_7513umtx_initOnceERNS_9UInitOnceEPFvvE.exit

_ZN6icu_7513umtx_initOnceERNS_9UInitOnceEPFvvE.exit: ; preds = %entry, %if.end.i, %if.then2.i
  %1 = load ptr, ptr @_ZL16gMetaZoneIDTable, align 8
  %cmp = icmp eq ptr %1, null
  br i1 %cmp, label %return, label %if.end

if.end:                                           ; preds = %_ZN6icu_7513umtx_initOnceERNS_9UInitOnceEPFvvE.exit
  %call = tail call ptr @uhash_get_75(ptr noundef nonnull %1, ptr noundef nonnull %mzid)
  br label %return

return:                                           ; preds = %_ZN6icu_7513umtx_initOnceERNS_9UInitOnceEPFvvE.exit, %if.end
  %retval.0 = phi ptr [ %call, %if.end ], [ null, %_ZN6icu_7513umtx_initOnceERNS_9UInitOnceEPFvvE.exit ]
  ret ptr %retval.0
}